target datalayout = "e-m:e-p270:32:32-p271:32:32-p272:64:64-i64:64-i128:128-f80:128-n8:16:32:64-S128"
target triple = "x86_64-pc-linux-gnu"

@.str.18 = private unnamed_addr constant [28 x i8] c"SECURITY LABEL FOR %s ON %s\00", align 1
@.str.19 = private unnamed_addr constant [8 x i8] c" %s IS \00", align 1
@.str.20 = private unnamed_addr constant [3 x i8] c";\0A\00", align 1

; Function Attrs: nounwind uwtable
define dso_local void @emitShSecLabels(ptr noundef %0, ptr noundef %1, ptr noundef %2, ptr noundef %3, ptr noundef %4) #0 {
  %6 = alloca ptr, align 8
  %7 = alloca ptr, align 8
  %8 = alloca ptr, align 8
  %9 = alloca ptr, align 8
  %10 = alloca ptr, align 8
  %11 = alloca i32, align 4
  %12 = alloca ptr, align 8
  %13 = alloca ptr, align 8
  store ptr %0, ptr %6, align 8
  store ptr %1, ptr %7, align 8
  store ptr %2, ptr %8, align 8
  store ptr %3, ptr %9, align 8
  store ptr %4, ptr %10, align 8
  call void @llvm.lifetime.start.p0(i64 4, ptr %11) #8
  store i32 0, ptr %11, align 4
  br label %14

14:                                               ; preds = %37, %5
  %15 = load i32, ptr %11, align 4
  %16 = load ptr, ptr %7, align 8
  %17 = call i32 @PQntuples(ptr noundef %16)
  %18 = icmp slt i32 %15, %17
  br i1 %18, label %19, label %40

19:                                               ; preds = %14
  call void @llvm.lifetime.start.p0(i64 8, ptr %12) #8
  %20 = load ptr, ptr %7, align 8
  %21 = load i32, ptr %11, align 4
  %22 = call ptr @PQgetvalue(ptr noundef %20, i32 noundef %21, i32 noundef 0)
  store ptr %22, ptr %12, align 8
  call void @llvm.lifetime.start.p0(i64 8, ptr %13) #8
  %23 = load ptr, ptr %7, align 8
  %24 = load i32, ptr %11, align 4
  %25 = call ptr @PQgetvalue(ptr noundef %23, i32 noundef %24, i32 noundef 1)
  store ptr %25, ptr %13, align 8
  %26 = load ptr, ptr %8, align 8
  %27 = load ptr, ptr %12, align 8
  %28 = call ptr @fmtId(ptr noundef %27)
  %29 = load ptr, ptr %9, align 8
  call void (ptr, ptr, ...) @appendPQExpBuffer(ptr noundef %26, ptr noundef @.str.18, ptr noundef %28, ptr noundef %29)
  %30 = load ptr, ptr %8, align 8
  %31 = load ptr, ptr %10, align 8
  %32 = call ptr @fmtId(ptr noundef %31)
  call void (ptr, ptr, ...) @appendPQExpBuffer(ptr noundef %30, ptr noundef @.str.19, ptr noundef %32)
  %33 = load ptr, ptr %8, align 8
  %34 = load ptr, ptr %13, align 8
  %35 = load ptr, ptr %6, align 8
  call void @appendStringLiteralConn(ptr noundef %33, ptr noundef %34, ptr noundef %35)
  %36 = load ptr, ptr %8, align 8
  call void @appendPQExpBufferStr(ptr noundef %36, ptr noundef @.str.20)
  call void @llvm.lifetime.end.p0(i64 8, ptr %13) #8
  call void @llvm.lifetime.end.p0(i64 8, ptr %12) #8
  br label %37

37:                                               ; preds = %19
  %38 = load i32, ptr %11, align 4
  %39 = add i32 %38, 1
  store i32 %39, ptr %11, align 4
  br label %14, !llvm.loop !15

40:                                               ; preds = %14
  call void @llvm.lifetime.end.p0(i64 4, ptr %11) #8
  ret void
}