; Function Attrs: nounwind uwtable
define dso_local void @emitShSecLabels(ptr noundef %0, ptr noundef %1, ptr noundef %2, ptr noundef %3, ptr noundef %4) local_unnamed_addr #0 {
  %6 = tail call i32 @PQntuples(ptr noundef %1) #8
  %7 = icmp sgt i32 %6, 0
  br i1 %7, label %.lr.ph, label %._crit_edge

.lr.ph:                                           ; preds = %5, %.lr.ph
  %.015 = phi i32 [ %12, %.lr.ph ], [ 0, %5 ]
  %8 = tail call ptr @PQgetvalue(ptr noundef %1, i32 noundef %.015, i32 noundef 0) #8
  %9 = tail call ptr @PQgetvalue(ptr noundef %1, i32 noundef %.015, i32 noundef 1) #8
  %10 = tail call ptr @fmtId(ptr noundef %8) #8
  tail call void (ptr, ptr, ...) @appendPQExpBuffer(ptr noundef %2, ptr noundef nonnull @.str.18, ptr noundef %10, ptr noundef %3) #8
  %11 = tail call ptr @fmtId(ptr noundef %4) #8
  tail call void (ptr, ptr, ...) @appendPQExpBuffer(ptr noundef %2, ptr noundef nonnull @.str.19, ptr noundef %11) #8
  tail call void @appendStringLiteralConn(ptr noundef %2, ptr noundef %9, ptr noundef %0) #8
  tail call void @appendPQExpBufferStr(ptr noundef %2, ptr noundef nonnull @.str.20) #8
  %12 = add nuw nsw i32 %.015, 1
  %13 = tail call i32 @PQntuples(ptr noundef %1) #8
  %14 = icmp slt i32 %12, %13
  br i1 %14, label %.lr.ph, label %._crit_edge, !llvm.loop !15

._crit_edge:                                      ; preds = %.lr.ph, %5
  ret void
}